; Function Attrs: mustprogress ssp uwtable
define void @_ZNK6open3d4core17HashBackendBuffer12GetKeyBufferEv(ptr dead_on_unwind noalias writable sret(%"class.open3d::core::Tensor") align 8 initializes((0, 8)) %0, ptr noundef nonnull align 8 dereferenceable(544) %1) local_unnamed_addr #0 align 2 personality ptr @__gxx_personality_v0 {
  store ptr getelementptr inbounds nuw inrange(-16, 24) (i8, ptr @_ZTVN6open3d4core6TensorE, i64 16), ptr %0, align 8, !tbaa !4
  %3 = getelementptr inbounds nuw i8, ptr %0, i64 8
  %4 = getelementptr inbounds nuw i8, ptr %1, i64 336
  tail call void @_ZN6open3d4core10SizeVectorC1ERKS1_(ptr noundef nonnull align 8 dereferenceable(48) %3, ptr noundef nonnull align 8 dereferenceable(48) %4)
  %5 = getelementptr inbounds nuw i8, ptr %0, i64 56
  %6 = getelementptr inbounds nuw i8, ptr %1, i64 384
  invoke void @_ZN6open3d4core10SizeVectorC1ERKS1_(ptr noundef nonnull align 8 dereferenceable(48) %5, ptr noundef nonnull align 8 dereferenceable(48) %6)
          to label %7 unwind label %24

7:                                                ; preds = %2
  %8 = getelementptr inbounds nuw i8, ptr %0, i64 104
  %9 = getelementptr inbounds nuw i8, ptr %1, i64 432
  tail call void @llvm.memcpy.p0.p0.i64(ptr noundef nonnull align 8 dereferenceable(40) %8, ptr noundef nonnull align 8 dereferenceable(40) %9, i64 40, i1 false)
  %10 = getelementptr inbounds nuw i8, ptr %0, i64 144
  %11 = getelementptr inbounds nuw i8, ptr %1, i64 472
  %12 = load ptr, ptr %11, align 8, !tbaa !87
  store ptr %12, ptr %10, align 8, !tbaa !87
  %13 = getelementptr inbounds nuw i8, ptr %0, i64 152
  %14 = getelementptr inbounds nuw i8, ptr %1, i64 480
  %15 = load ptr, ptr %14, align 8, !tbaa !56
  store ptr %15, ptr %13, align 8, !tbaa !56
  %.not.i.i.i.i = icmp eq ptr %15, null
  br i1 %.not.i.i.i.i, label %_ZN6open3d4core6TensorC2ERKS1_.exit, label %16

16:                                               ; preds = %7
  %17 = getelementptr inbounds nuw i8, ptr %15, i64 8
  %18 = load i8, ptr @__libc_single_threaded, align 1, !tbaa !36
  %.not.i.i.i.i.i = icmp eq i8 %18, 0
  br i1 %.not.i.i.i.i.i, label %22, label %19

19:                                               ; preds = %16
  %20 = load i32, ptr %17, align 4, !tbaa !60
  %21 = add nsw i32 %20, 1
  store i32 %21, ptr %17, align 4, !tbaa !60
  br label %_ZN6open3d4core6TensorC2ERKS1_.exit

22:                                               ; preds = %16
  %23 = atomicrmw volatile add ptr %17, i32 1 acq_rel, align 4
  br label %_ZN6open3d4core6TensorC2ERKS1_.exit

24:                                               ; preds = %2
  %25 = landingpad { ptr, i32 }
          cleanup
  %26 = load ptr, ptr %3, align 8, !tbaa !15
  %27 = getelementptr inbounds nuw i8, ptr %0, i64 24
  %28 = icmp eq ptr %26, %27
  br i1 %28, label %_ZN6open3d4core11SmallVectorIlLj4EED2Ev.exit.i, label %29

29:                                               ; preds = %24
  tail call void @free(ptr noundef %26) #31
  br label %_ZN6open3d4core11SmallVectorIlLj4EED2Ev.exit.i

_ZN6open3d4core11SmallVectorIlLj4EED2Ev.exit.i:   ; preds = %29, %24
  resume { ptr, i32 } %25

_ZN6open3d4core6TensorC2ERKS1_.exit:              ; preds = %7, %19, %22
  ret void
}